; ModuleID = 'source-C-CXX/46/5341.c'
source_filename = "source-C-CXX/46/5341.c"
target datalayout = "e-m:e-p270:32:32-p271:32:32-p272:64:64-i64:64-f80:128-n8:16:32:64-S128"
target triple = "x86_64-pc-linux-gnu"

@.str = private unnamed_addr constant [3 x i8] c"%d\00", align 1

; Function Attrs: nofree nounwind sspstrong uwtable
define dso_local i32 @main() local_unnamed_addr #0 {
  %1 = alloca i32, align 4
  %2 = bitcast i32* %1 to i8*
  call void @llvm.lifetime.start.p0i8(i64 4, i8* nonnull %2) #5
  %3 = call i32 (i8*, ...) @__isoc99_scanf(i8* getelementptr inbounds ([3 x i8], [3 x i8]* @.str, i64 0, i64 0), i32* nonnull %1)
  %4 = load i32, i32* %1, align 4, !tbaa !5
  %5 = sext i32 %4 to i64
  %6 = shl nsw i64 %5, 2
  %7 = call noalias align 16 i8* @malloc(i64 %6) #5
  %8 = bitcast i8* %7 to i32*
  %9 = icmp sgt i32 %4, 0
  br i1 %9, label %14, label %40

10:                                               ; preds = %14
  %11 = icmp sgt i32 %19, 0
  br i1 %11, label %12, label %40

12:                                               ; preds = %10
  %13 = zext i32 %19 to i64
  br label %22

14:                                               ; preds = %0, %14
  %15 = phi i64 [ %18, %14 ], [ 0, %0 ]
  %16 = getelementptr inbounds i32, i32* %8, i64 %15
  %17 = call i32 (i8*, ...) @__isoc99_scanf(i8* getelementptr inbounds ([3 x i8], [3 x i8]* @.str, i64 0, i64 0), i32* %16)
  %18 = add nuw nsw i64 %15, 1
  %19 = load i32, i32* %1, align 4, !tbaa !5
  %20 = sext i32 %19 to i64
  %21 = icmp slt i64 %18, %20
  br i1 %21, label %14, label %10, !llvm.loop !9

22:                                               ; preds = %37, %12
  %23 = phi i32 [ %19, %12 ], [ %39, %37 ]
  %24 = phi i64 [ %13, %12 ], [ %38, %37 ]
  %25 = phi i32 [ %19, %12 ], [ %26, %37 ]
  %26 = add nsw i32 %25, -1
  %27 = zext i32 %23 to i64
  %28 = icmp eq i64 %24, %27
  br i1 %28, label %31, label %29

29:                                               ; preds = %22
  %30 = call i32 @putchar(i32 32)
  br label %31

31:                                               ; preds = %29, %22
  %32 = zext i32 %26 to i64
  %33 = getelementptr inbounds i32, i32* %8, i64 %32
  %34 = load i32, i32* %33, align 4, !tbaa !5
  %35 = call i32 (i8*, ...) @printf(i8* nonnull dereferenceable(1) getelementptr inbounds ([3 x i8], [3 x i8]* @.str, i64 0, i64 0), i32 %34)
  %36 = icmp sgt i64 %24, 1
  br i1 %36, label %37, label %40, !llvm.loop !11

37:                                               ; preds = %31
  %38 = add nsw i64 %24, -1
  %39 = load i32, i32* %1, align 4, !tbaa !5
  br label %22

40:                                               ; preds = %31, %0, %10
  call void @llvm.lifetime.end.p0i8(i64 4, i8* nonnull %2) #5
  ret i32 0
}

; Function Attrs: argmemonly mustprogress nofree nosync nounwind willreturn
declare void @llvm.lifetime.start.p0i8(i64 immarg, i8* nocapture) #1

; Function Attrs: nofree nounwind
declare noundef i32 @__isoc99_scanf(i8* nocapture noundef readonly, ...) local_unnamed_addr #2

; Function Attrs: inaccessiblememonly mustprogress nofree nounwind willreturn
declare noalias noundef align 16 i8* @malloc(i64 noundef) local_unnamed_addr #3

; Function Attrs: nofree nounwind
declare noundef i32 @printf(i8* nocapture noundef readonly, ...) local_unnamed_addr #2

; Function Attrs: argmemonly mustprogress nofree nosync nounwind willreturn
declare void @llvm.lifetime.end.p0i8(i64 immarg, i8* nocapture) #1

; Function Attrs: nofree nounwind
declare noundef i32 @putchar(i32 noundef) local_unnamed_addr #4


!llvm.module.flags = !{!0, !1, !2, !3}
!llvm.ident = !{!4}

!0 = !{i32 1, !"wchar_size", i32 4}
!1 = !{i32 7, !"PIC Level", i32 2}
!2 = !{i32 7, !"PIE Level", i32 2}
!3 = !{i32 7, !"uwtable", i32 1}
!4 = !{!"clang version 13.0.0"}
!5 = !{!6, !6, i64 0}
!6 = !{!"int", !7, i64 0}
!7 = !{!"omnipotent char", !8, i64 0}
!8 = !{!"Simple C/C++ TBAA"}
!9 = distinct !{!9, !10}
!10 = !{!"llvm.loop.mustprogress"}
!11 = distinct !{!11, !10}
